target datalayout = "e-m:e-p270:32:32-p271:32:32-p272:64:64-i64:64-i128:128-f80:128-n8:16:32:64-S128"
target triple = "x86_64-pc-linux-gnu"

%struct._FUserData = type { ptr, ptr, ptr, ptr, ptr, ptr, ptr, ptr, ptr }

; Function Attrs: nounwind uwtable
define i32 @ipgetcurrviolations_(ptr noundef %0, ptr noundef %1, ptr noundef %2, ptr noundef %3, ptr noundef %4, ptr noundef %5, ptr noundef %6, ptr noundef %7, ptr noundef %8, ptr noundef %9, ptr noundef %10, ptr noundef %11, ptr noundef %12, ptr noundef %13, ptr noundef %14) #0 {
  %16 = alloca ptr, align 8
  %17 = alloca ptr, align 8
  %18 = alloca ptr, align 8
  %19 = alloca ptr, align 8
  %20 = alloca ptr, align 8
  %21 = alloca ptr, align 8
  %22 = alloca ptr, align 8
  %23 = alloca ptr, align 8
  %24 = alloca ptr, align 8
  %25 = alloca ptr, align 8
  %26 = alloca ptr, align 8
  %27 = alloca ptr, align 8
  %28 = alloca ptr, align 8
  %29 = alloca ptr, align 8
  %30 = alloca ptr, align 8
  %31 = alloca ptr, align 8
  store ptr %0, ptr %16, align 8, !tbaa !32
  store ptr %1, ptr %17, align 8, !tbaa !3
  store ptr %2, ptr %18, align 8, !tbaa !3
  store ptr %3, ptr %19, align 8, !tbaa !3
  store ptr %4, ptr %20, align 8, !tbaa !3
  store ptr %5, ptr %21, align 8, !tbaa !3
  store ptr %6, ptr %22, align 8, !tbaa !3
  store ptr %7, ptr %23, align 8, !tbaa !8
  store ptr %8, ptr %24, align 8, !tbaa !8
  store ptr %9, ptr %25, align 8, !tbaa !8
  store ptr %10, ptr %26, align 8, !tbaa !8
  store ptr %11, ptr %27, align 8, !tbaa !8
  store ptr %12, ptr %28, align 8, !tbaa !3
  store ptr %13, ptr %29, align 8, !tbaa !8
  store ptr %14, ptr %30, align 8, !tbaa !8
  call void @llvm.lifetime.start.p0(i64 8, ptr %31) #6
  %32 = load ptr, ptr %16, align 8, !tbaa !32
  %33 = load ptr, ptr %32, align 8, !tbaa !10
  store ptr %33, ptr %31, align 8, !tbaa !13
  %34 = load ptr, ptr %31, align 8, !tbaa !13
  %35 = getelementptr inbounds nuw %struct._FUserData, ptr %34, i32 0, i32 8
  %36 = load ptr, ptr %35, align 8, !tbaa !15
  %37 = load ptr, ptr %17, align 8, !tbaa !3
  %38 = load i32, ptr %37, align 4, !tbaa !11
  %39 = icmp ne i32 %38, 0
  %40 = load ptr, ptr %22, align 8, !tbaa !3
  %41 = load i32, ptr %40, align 4, !tbaa !11
  %42 = load ptr, ptr %18, align 8, !tbaa !3
  %43 = load i32, ptr %42, align 4, !tbaa !11
  %44 = icmp ne i32 %43, 0
  br i1 %44, label %45, label %47

45:                                               ; preds = %15
  %46 = load ptr, ptr %23, align 8, !tbaa !8
  br label %48

47:                                               ; preds = %15
  br label %48

48:                                               ; preds = %47, %45
  %49 = phi ptr [ %46, %45 ], [ null, %47 ]
  %50 = load ptr, ptr %18, align 8, !tbaa !3
  %51 = load i32, ptr %50, align 4, !tbaa !11
  %52 = icmp ne i32 %51, 0
  br i1 %52, label %53, label %55

53:                                               ; preds = %48
  %54 = load ptr, ptr %24, align 8, !tbaa !8
  br label %56

55:                                               ; preds = %48
  br label %56

56:                                               ; preds = %55, %53
  %57 = phi ptr [ %54, %53 ], [ null, %55 ]
  %58 = load ptr, ptr %19, align 8, !tbaa !3
  %59 = load i32, ptr %58, align 4, !tbaa !11
  %60 = icmp ne i32 %59, 0
  br i1 %60, label %61, label %63

61:                                               ; preds = %56
  %62 = load ptr, ptr %25, align 8, !tbaa !8
  br label %64

63:                                               ; preds = %56
  br label %64

64:                                               ; preds = %63, %61
  %65 = phi ptr [ %62, %61 ], [ null, %63 ]
  %66 = load ptr, ptr %19, align 8, !tbaa !3
  %67 = load i32, ptr %66, align 4, !tbaa !11
  %68 = icmp ne i32 %67, 0
  br i1 %68, label %69, label %71

69:                                               ; preds = %64
  %70 = load ptr, ptr %26, align 8, !tbaa !8
  br label %72

71:                                               ; preds = %64
  br label %72

72:                                               ; preds = %71, %69
  %73 = phi ptr [ %70, %69 ], [ null, %71 ]
  %74 = load ptr, ptr %20, align 8, !tbaa !3
  %75 = load i32, ptr %74, align 4, !tbaa !11
  %76 = icmp ne i32 %75, 0
  br i1 %76, label %77, label %79

77:                                               ; preds = %72
  %78 = load ptr, ptr %27, align 8, !tbaa !8
  br label %80

79:                                               ; preds = %72
  br label %80

80:                                               ; preds = %79, %77
  %81 = phi ptr [ %78, %77 ], [ null, %79 ]
  %82 = load ptr, ptr %28, align 8, !tbaa !3
  %83 = load i32, ptr %82, align 4, !tbaa !11
  %84 = load ptr, ptr %21, align 8, !tbaa !3
  %85 = load i32, ptr %84, align 4, !tbaa !11
  %86 = icmp ne i32 %85, 0
  br i1 %86, label %87, label %89

87:                                               ; preds = %80
  %88 = load ptr, ptr %29, align 8, !tbaa !8
  br label %90

89:                                               ; preds = %80
  br label %90

90:                                               ; preds = %89, %87
  %91 = phi ptr [ %88, %87 ], [ null, %89 ]
  %92 = load ptr, ptr %19, align 8, !tbaa !3
  %93 = load i32, ptr %92, align 4, !tbaa !11
  %94 = icmp ne i32 %93, 0
  br i1 %94, label %95, label %97

95:                                               ; preds = %90
  %96 = load ptr, ptr %30, align 8, !tbaa !8
  br label %98

97:                                               ; preds = %90
  br label %98

98:                                               ; preds = %97, %95
  %99 = phi ptr [ %96, %95 ], [ null, %97 ]
  %100 = call zeroext i1 @GetIpoptCurrentViolations(ptr noundef %36, i1 noundef zeroext %39, i32 noundef %41, ptr noundef %49, ptr noundef %57, ptr noundef %65, ptr noundef %73, ptr noundef %81, i32 noundef %83, ptr noundef %91, ptr noundef %99)
  %101 = select i1 %100, i32 0, i32 1
  call void @llvm.lifetime.end.p0(i64 8, ptr %31) #6
  ret i32 %101
}