; Function Attrs: nounwind uwtable
define range(i32 0, 2) i32 @ipgetcurrviolations_(ptr noundef readonly captures(none) %0, ptr noundef readonly captures(none) %1, ptr noundef readonly captures(none) %2, ptr noundef readonly captures(none) %3, ptr noundef readonly captures(none) %4, ptr noundef readonly captures(none) %5, ptr noundef readonly captures(none) %6, ptr noundef %7, ptr noundef %8, ptr noundef %9, ptr noundef %10, ptr noundef %11, ptr noundef readonly captures(none) %12, ptr noundef %13, ptr noundef %14) local_unnamed_addr #0 {
  %16 = load ptr, ptr %0, align 8, !tbaa !23
  %17 = getelementptr inbounds nuw i8, ptr %16, i64 64
  %18 = load ptr, ptr %17, align 8, !tbaa !7
  %19 = load i32, ptr %1, align 4, !tbaa !3
  %20 = icmp ne i32 %19, 0
  %21 = load i32, ptr %6, align 4, !tbaa !3
  %22 = load i32, ptr %2, align 4, !tbaa !3
  %.not = icmp eq i32 %22, 0
  %23 = select i1 %.not, ptr null, ptr %7
  %24 = select i1 %.not, ptr null, ptr %8
  %25 = load i32, ptr %3, align 4, !tbaa !3
  %.not19 = icmp eq i32 %25, 0
  %26 = select i1 %.not19, ptr null, ptr %9
  %27 = select i1 %.not19, ptr null, ptr %10
  %28 = load i32, ptr %4, align 4, !tbaa !3
  %.not20 = icmp eq i32 %28, 0
  %29 = select i1 %.not20, ptr null, ptr %11
  %30 = load i32, ptr %12, align 4, !tbaa !3
  %31 = load i32, ptr %5, align 4, !tbaa !3
  %.not21 = icmp eq i32 %31, 0
  %32 = select i1 %.not21, ptr null, ptr %13
  %33 = select i1 %.not19, ptr null, ptr %14
  %34 = tail call zeroext i1 @GetIpoptCurrentViolations(ptr noundef %18, i1 noundef zeroext %20, i32 noundef %21, ptr noundef %23, ptr noundef %24, ptr noundef %26, ptr noundef %27, ptr noundef %29, i32 noundef %30, ptr noundef %32, ptr noundef %33) #8
  %not. = xor i1 %34, true
  %35 = zext i1 %not. to i32
  ret i32 %35
}